#include <math.h>
#include <stdio.h>
#include <stdlib.h>
#include <string.h>

int main()
{
	char a[501],b[501];
	int sum=0,i,lena,lenb,t=0;
	double n,bi;
	scanf("%lf",&n);
	scanf("%s%s",a,b);
	lena=strlen(a);
	lenb=strlen(b);
	for(i=0;i<lena;i++)
	{
		if(a[i]!='A'&&a[i]!='G'&&a[i]!='C'&&a[i]!='T')
		{
			t++;
		}
	}
	for(i=0;i<lenb;i++)
	{
		if(b[i]!='A'&&b[i]!='G'&&b[i]!='C'&&b[i]!='T')
		{
			t++;
		}
	}

	if(lena!=lenb||t!=0)
	{
		printf("error");
	}
	else
	{
		for(i=0;i<lena;i++)
		{
			if(a[i]==b[i])
			{
				sum++;
			}
		}
		bi=(double)sum/lena;
		if(bi>n)
		{
			printf("yes");
		}
		else
		{
			printf("no");
		}
	}
	return 0;
}

		
	